target datalayout = "e-m:e-p270:32:32-p271:32:32-p272:64:64-i64:64-i128:128-f80:128-n8:16:32:64-S128"
target triple = "x86_64-pc-linux-gnu"

@proto_register_tacplus.ett = internal global [5 x ptr] [ptr @ett_tacplus, ptr @ett_tacplus_flags, ptr @ett_tacplus_acct_flags, ptr @ett_tacplus_body, ptr @ett_tacplus_body_chap], align 16
@.str.157 = private unnamed_addr constant [8 x i8] c"TACACS+\00", align 1
@.str.158 = private unnamed_addr constant [8 x i8] c"tacplus\00", align 1
@proto_tacplus = internal global i32 0, align 4
@tacplus_handle = internal global ptr null, align 8
@.str.159 = private unnamed_addr constant [10 x i8] c"desegment\00", align 1
@.str.160 = private unnamed_addr constant [60 x i8] c"Reassemble TACACS+ messages spanning multiple TCP segments.\00", align 1
@.str.161 = private unnamed_addr constant [209 x i8] c"Whether the TACACS+ dissector should reassemble messages spanning multiple TCP segments.  To use this option, you must also enable \22Allow subdissectors to reassemble TCP streams\22 in the TCP protocol settings.\00", align 1
@tacplus_preference_desegment = internal global i8 1, align 1
@.str.162 = private unnamed_addr constant [4 x i8] c"key\00", align 1
@.str.163 = private unnamed_addr constant [23 x i8] c"TACACS+ Encryption Key\00", align 1
@tacplus_opt_key = internal global ptr null, align 8

; Function Attrs: null_pointer_is_valid sspstrong uwtable
define hidden void @proto_register_tacplus() #0 {
  %1 = alloca ptr, align 8
  %2 = alloca ptr, align 8
  call void @llvm.lifetime.start.p0(i64 8, ptr %1) #12
  call void @llvm.lifetime.start.p0(i64 8, ptr %2) #12
  %3 = call i32 @proto_register_protocol(ptr noundef @.str.157, ptr noundef @.str.157, ptr noundef @.str.158)
  store i32 %3, ptr @proto_tacplus, align 4
  %4 = load i32, ptr @proto_tacplus, align 4
  call void @proto_register_field_array(i32 noundef %4, ptr noundef @proto_register_tacplus.hf, i32 noundef 67)
  call void @proto_register_subtree_array(ptr noundef @proto_register_tacplus.ett, i32 noundef 5)
  %5 = load i32, ptr @proto_tacplus, align 4
  %6 = call ptr @register_dissector(ptr noundef @.str.158, ptr noundef @dissect_tacplus, i32 noundef %5)
  store ptr %6, ptr @tacplus_handle, align 8
  %7 = load i32, ptr @proto_tacplus, align 4
  %8 = call ptr @expert_register_protocol(i32 noundef %7)
  store ptr %8, ptr %2, align 8
  %9 = load ptr, ptr %2, align 8
  call void @expert_register_field_array(ptr noundef %9, ptr noundef @proto_register_tacplus.ei, i32 noundef 3)
  %10 = load i32, ptr @proto_tacplus, align 4
  %11 = call ptr @prefs_register_protocol(i32 noundef %10, ptr noundef @tacplus_pref_cb)
  store ptr %11, ptr %1, align 8
  %12 = load ptr, ptr %1, align 8
  call void @prefs_register_bool_preference(ptr noundef %12, ptr noundef @.str.159, ptr noundef @.str.160, ptr noundef @.str.161, ptr noundef @tacplus_preference_desegment)
  %13 = load ptr, ptr %1, align 8
  call void @prefs_register_string_preference(ptr noundef %13, ptr noundef @.str.162, ptr noundef @.str.163, ptr noundef @.str.163, ptr noundef @tacplus_opt_key)
  call void @llvm.lifetime.end.p0(i64 8, ptr %2) #12
  call void @llvm.lifetime.end.p0(i64 8, ptr %1) #12
  ret void
}