; Function Attrs: null_pointer_is_valid sspstrong uwtable
define hidden void @proto_register_tacplus() local_unnamed_addr #0 {
  %1 = tail call i32 @proto_register_protocol(ptr noundef nonnull @.str.157, ptr noundef nonnull @.str.157, ptr noundef nonnull @.str.158)
  store i32 %1, ptr @proto_tacplus, align 4
  tail call void @proto_register_field_array(i32 noundef %1, ptr noundef nonnull @proto_register_tacplus.hf, i32 noundef 67)
  tail call void @proto_register_subtree_array(ptr noundef nonnull @proto_register_tacplus.ett, i32 noundef 5)
  %2 = load i32, ptr @proto_tacplus, align 4
  %3 = tail call ptr @register_dissector(ptr noundef nonnull @.str.158, ptr noundef nonnull @dissect_tacplus, i32 noundef %2)
  store ptr %3, ptr @tacplus_handle, align 8
  %4 = load i32, ptr @proto_tacplus, align 4
  %5 = tail call ptr @expert_register_protocol(i32 noundef %4)
  tail call void @expert_register_field_array(ptr noundef %5, ptr noundef nonnull @proto_register_tacplus.ei, i32 noundef 3)
  %6 = load i32, ptr @proto_tacplus, align 4
  %7 = tail call ptr @prefs_register_protocol(i32 noundef %6, ptr noundef nonnull @tacplus_pref_cb)
  tail call void @prefs_register_bool_preference(ptr noundef %7, ptr noundef nonnull @.str.159, ptr noundef nonnull @.str.160, ptr noundef nonnull @.str.161, ptr noundef nonnull @tacplus_preference_desegment)
  tail call void @prefs_register_string_preference(ptr noundef %7, ptr noundef nonnull @.str.162, ptr noundef nonnull @.str.163, ptr noundef nonnull @.str.163, ptr noundef nonnull @tacplus_opt_key)
  ret void
}